; ModuleID = '2/131.c'
source_filename = "2/131.c"
target datalayout = "e-m:e-p270:32:32-p271:32:32-p272:64:64-i64:64-f80:128-n8:16:32:64-S128"
target triple = "x86_64-pc-linux-gnu"

%struct.book = type { i32, [26 x i8] }

@.str = private unnamed_addr constant [3 x i8] c"%d\00", align 1
@.str.1 = private unnamed_addr constant [6 x i8] c"%d %s\00", align 1
@.str.2 = private unnamed_addr constant [7 x i8] c"%c\0A%d\0A\00", align 1
@.str.3 = private unnamed_addr constant [4 x i8] c"%d\0A\00", align 1

; Function Attrs: noinline nounwind uwtable
define dso_local i32 @main() #0 {
  %1 = alloca i32, align 4
  %2 = alloca [999 x %struct.book], align 16
  %3 = alloca [26 x i32], align 16
  %4 = alloca i32, align 4
  %5 = alloca i32, align 4
  %6 = alloca i32, align 4
  %7 = alloca i32, align 4
  %8 = alloca i32, align 4
  %9 = alloca i8, align 1
  store i32 0, i32* %1, align 4
  %10 = call i32 (i8*, ...) @__isoc99_scanf(i8* getelementptr inbounds ([3 x i8], [3 x i8]* @.str, i64 0, i64 0), i32* %4)
  store i32 0, i32* %5, align 4
  br label %11

11:                                               ; preds = %26, %0
  %12 = load i32, i32* %5, align 4
  %13 = load i32, i32* %4, align 4
  %14 = icmp slt i32 %12, %13
  br i1 %14, label %15, label %29

15:                                               ; preds = %11
  %16 = load i32, i32* %5, align 4
  %17 = sext i32 %16 to i64
  %18 = getelementptr inbounds [999 x %struct.book], [999 x %struct.book]* %2, i64 0, i64 %17
  %19 = getelementptr inbounds %struct.book, %struct.book* %18, i32 0, i32 0
  %20 = load i32, i32* %5, align 4
  %21 = sext i32 %20 to i64
  %22 = getelementptr inbounds [999 x %struct.book], [999 x %struct.book]* %2, i64 0, i64 %21
  %23 = getelementptr inbounds %struct.book, %struct.book* %22, i32 0, i32 1
  %24 = getelementptr inbounds [26 x i8], [26 x i8]* %23, i64 0, i64 0
  %25 = call i32 (i8*, ...) @__isoc99_scanf(i8* getelementptr inbounds ([6 x i8], [6 x i8]* @.str.1, i64 0, i64 0), i32* %19, i8* %24)
  br label %26

26:                                               ; preds = %15
  %27 = load i32, i32* %5, align 4
  %28 = add nsw i32 %27, 1
  store i32 %28, i32* %5, align 4
  br label %11

29:                                               ; preds = %11
  store i32 0, i32* %5, align 4
  br label %30

30:                                               ; preds = %37, %29
  %31 = load i32, i32* %5, align 4
  %32 = icmp slt i32 %31, 26
  br i1 %32, label %33, label %40

33:                                               ; preds = %30
  %34 = load i32, i32* %5, align 4
  %35 = sext i32 %34 to i64
  %36 = getelementptr inbounds [26 x i32], [26 x i32]* %3, i64 0, i64 %35
  store i32 0, i32* %36, align 4
  br label %37

37:                                               ; preds = %33
  %38 = load i32, i32* %5, align 4
  %39 = add nsw i32 %38, 1
  store i32 %39, i32* %5, align 4
  br label %30

40:                                               ; preds = %30
  store i32 0, i32* %5, align 4
  br label %41

41:                                               ; preds = %77, %40
  %42 = load i32, i32* %5, align 4
  %43 = load i32, i32* %4, align 4
  %44 = icmp slt i32 %42, %43
  br i1 %44, label %45, label %80

45:                                               ; preds = %41
  store i32 0, i32* %6, align 4
  br label %46

46:                                               ; preds = %73, %45
  %47 = load i32, i32* %5, align 4
  %48 = sext i32 %47 to i64
  %49 = getelementptr inbounds [999 x %struct.book], [999 x %struct.book]* %2, i64 0, i64 %48
  %50 = getelementptr inbounds %struct.book, %struct.book* %49, i32 0, i32 1
  %51 = load i32, i32* %6, align 4
  %52 = sext i32 %51 to i64
  %53 = getelementptr inbounds [26 x i8], [26 x i8]* %50, i64 0, i64 %52
  %54 = load i8, i8* %53, align 1
  %55 = sext i8 %54 to i32
  %56 = icmp ne i32 %55, 0
  br i1 %56, label %57, label %76

57:                                               ; preds = %46
  %58 = load i32, i32* %5, align 4
  %59 = sext i32 %58 to i64
  %60 = getelementptr inbounds [999 x %struct.book], [999 x %struct.book]* %2, i64 0, i64 %59
  %61 = getelementptr inbounds %struct.book, %struct.book* %60, i32 0, i32 1
  %62 = load i32, i32* %6, align 4
  %63 = sext i32 %62 to i64
  %64 = getelementptr inbounds [26 x i8], [26 x i8]* %61, i64 0, i64 %63
  %65 = load i8, i8* %64, align 1
  store i8 %65, i8* %9, align 1
  %66 = load i8, i8* %9, align 1
  %67 = sext i8 %66 to i32
  %68 = sub nsw i32 %67, 65
  %69 = sext i32 %68 to i64
  %70 = getelementptr inbounds [26 x i32], [26 x i32]* %3, i64 0, i64 %69
  %71 = load i32, i32* %70, align 4
  %72 = add nsw i32 %71, 1
  store i32 %72, i32* %70, align 4
  br label %73

73:                                               ; preds = %57
  %74 = load i32, i32* %6, align 4
  %75 = add nsw i32 %74, 1
  store i32 %75, i32* %6, align 4
  br label %46

76:                                               ; preds = %46
  br label %77

77:                                               ; preds = %76
  %78 = load i32, i32* %5, align 4
  %79 = add nsw i32 %78, 1
  store i32 %79, i32* %5, align 4
  br label %41

80:                                               ; preds = %41
  %81 = getelementptr inbounds [26 x i32], [26 x i32]* %3, i64 0, i64 0
  %82 = load i32, i32* %81, align 16
  store i32 %82, i32* %7, align 4
  store i32 0, i32* %8, align 4
  store i32 1, i32* %5, align 4
  br label %83

83:                                               ; preds = %100, %80
  %84 = load i32, i32* %5, align 4
  %85 = icmp slt i32 %84, 26
  br i1 %85, label %86, label %103

86:                                               ; preds = %83
  %87 = load i32, i32* %5, align 4
  %88 = sext i32 %87 to i64
  %89 = getelementptr inbounds [26 x i32], [26 x i32]* %3, i64 0, i64 %88
  %90 = load i32, i32* %89, align 4
  %91 = load i32, i32* %7, align 4
  %92 = icmp sgt i32 %90, %91
  br i1 %92, label %93, label %99

93:                                               ; preds = %86
  %94 = load i32, i32* %5, align 4
  %95 = sext i32 %94 to i64
  %96 = getelementptr inbounds [26 x i32], [26 x i32]* %3, i64 0, i64 %95
  %97 = load i32, i32* %96, align 4
  store i32 %97, i32* %7, align 4
  %98 = load i32, i32* %5, align 4
  store i32 %98, i32* %8, align 4
  br label %99

99:                                               ; preds = %93, %86
  br label %100

100:                                              ; preds = %99
  %101 = load i32, i32* %5, align 4
  %102 = add nsw i32 %101, 1
  store i32 %102, i32* %5, align 4
  br label %83

103:                                              ; preds = %83
  %104 = load i32, i32* %8, align 4
  %105 = add nsw i32 %104, 65
  %106 = load i32, i32* %7, align 4
  %107 = call i32 (i8*, ...) @printf(i8* getelementptr inbounds ([7 x i8], [7 x i8]* @.str.2, i64 0, i64 0), i32 %105, i32 %106)
  store i32 0, i32* %5, align 4
  br label %108

108:                                              ; preds = %150, %103
  %109 = load i32, i32* %5, align 4
  %110 = load i32, i32* %4, align 4
  %111 = icmp slt i32 %109, %110
  br i1 %111, label %112, label %153

112:                                              ; preds = %108
  store i32 0, i32* %6, align 4
  br label %113

113:                                              ; preds = %146, %112
  %114 = load i32, i32* %5, align 4
  %115 = sext i32 %114 to i64
  %116 = getelementptr inbounds [999 x %struct.book], [999 x %struct.book]* %2, i64 0, i64 %115
  %117 = getelementptr inbounds %struct.book, %struct.book* %116, i32 0, i32 1
  %118 = load i32, i32* %6, align 4
  %119 = sext i32 %118 to i64
  %120 = getelementptr inbounds [26 x i8], [26 x i8]* %117, i64 0, i64 %119
  %121 = load i8, i8* %120, align 1
  %122 = sext i8 %121 to i32
  %123 = icmp ne i32 %122, 0
  br i1 %123, label %124, label %149

124:                                              ; preds = %113
  %125 = load i32, i32* %5, align 4
  %126 = sext i32 %125 to i64
  %127 = getelementptr inbounds [999 x %struct.book], [999 x %struct.book]* %2, i64 0, i64 %126
  %128 = getelementptr inbounds %struct.book, %struct.book* %127, i32 0, i32 1
  %129 = load i32, i32* %6, align 4
  %130 = sext i32 %129 to i64
  %131 = getelementptr inbounds [26 x i8], [26 x i8]* %128, i64 0, i64 %130
  %132 = load i8, i8* %131, align 1
  store i8 %132, i8* %9, align 1
  %133 = load i8, i8* %9, align 1
  %134 = sext i8 %133 to i32
  %135 = load i32, i32* %8, align 4
  %136 = add nsw i32 %135, 65
  %137 = icmp eq i32 %134, %136
  br i1 %137, label %138, label %145

138:                                              ; preds = %124
  %139 = load i32, i32* %5, align 4
  %140 = sext i32 %139 to i64
  %141 = getelementptr inbounds [999 x %struct.book], [999 x %struct.book]* %2, i64 0, i64 %140
  %142 = getelementptr inbounds %struct.book, %struct.book* %141, i32 0, i32 0
  %143 = load i32, i32* %142, align 16
  %144 = call i32 (i8*, ...) @printf(i8* getelementptr inbounds ([4 x i8], [4 x i8]* @.str.3, i64 0, i64 0), i32 %143)
  br label %149

145:                                              ; preds = %124
  br label %146

146:                                              ; preds = %145
  %147 = load i32, i32* %6, align 4
  %148 = add nsw i32 %147, 1
  store i32 %148, i32* %6, align 4
  br label %113

149:                                              ; preds = %138, %113
  br label %150

150:                                              ; preds = %149
  %151 = load i32, i32* %5, align 4
  %152 = add nsw i32 %151, 1
  store i32 %152, i32* %5, align 4
  br label %108

153:                                              ; preds = %108
  ret i32 0
}

declare dso_local i32 @__isoc99_scanf(i8*, ...) #1

declare dso_local i32 @printf(i8*, ...) #1


!llvm.module.flags = !{!0}
!llvm.ident = !{!1}

!0 = !{i32 1, !"wchar_size", i32 4}
!1 = !{!"clang version 10.0.0-4ubuntu1 "}
